target datalayout = "e-m:e-p270:32:32-p271:32:32-p272:64:64-i64:64-i128:128-f80:128-n8:16:32:64-S128"
target triple = "x86_64-pc-linux-gnu"

%struct.zstream_funcs = type { ptr, ptr, ptr }
%struct.zstream = type { i64, i64, i64, i64, %struct.z_stream_s, ptr }
%struct.z_stream_s = type { ptr, i32, i64, ptr, i32, i64, ptr, ptr, ptr, ptr, ptr, i32, i64, i64 }
%struct.gzfile = type { %struct.zstream, i64, i32, i32, i64, i64, i64, i64, i32, i32, i64, ptr, ptr, ptr, ptr, i64, i64 }

@.str.148 = private unnamed_addr constant [35 x i8] c"the stream state was inconsistent.\00", align 1
@.str.149 = private unnamed_addr constant [34 x i8] c"the stream was freed prematurely.\00", align 1
@deflate_funcs = internal constant %struct.zstream_funcs { ptr @deflateReset, ptr @deflateEnd, ptr @deflate }, align 8
@.str.164 = private unnamed_addr constant [51 x i8] c"Zlib::GzipWriter object must be closed explicitly.\00", align 1

; Function Attrs: nounwind sspstrong uwtable
define internal void @zstream_finalize(ptr noundef %0) #0 {
  %2 = alloca ptr, align 8
  %3 = alloca i32, align 4
  store ptr %0, ptr %2, align 8, !tbaa !21
  call void @llvm.lifetime.start.p0(i64 4, ptr %3) #23
  %4 = load ptr, ptr %2, align 8, !tbaa !21
  %5 = getelementptr inbounds nuw %struct.zstream, ptr %4, i32 0, i32 5
  %6 = load ptr, ptr %5, align 8, !tbaa !93
  %7 = getelementptr inbounds nuw %struct.zstream_funcs, ptr %6, i32 0, i32 1
  %8 = load ptr, ptr %7, align 8, !tbaa !94
  %9 = load ptr, ptr %2, align 8, !tbaa !21
  %10 = getelementptr inbounds nuw %struct.zstream, ptr %9, i32 0, i32 4
  %11 = call i32 %8(ptr noundef %10)
  store i32 %11, ptr %3, align 4, !tbaa !10
  %12 = load i32, ptr %3, align 4, !tbaa !10
  %13 = icmp eq i32 %12, -2
  br i1 %13, label %14, label %15

14:                                               ; preds = %1
  call void @finalizer_warn(ptr noundef @.str.148)
  br label %15

15:                                               ; preds = %14, %1
  %16 = load i32, ptr %3, align 4, !tbaa !10
  %17 = icmp eq i32 %16, -3
  br i1 %17, label %18, label %19

18:                                               ; preds = %15
  call void @finalizer_warn(ptr noundef @.str.149)
  br label %19

19:                                               ; preds = %18, %15
  call void @llvm.lifetime.end.p0(i64 4, ptr %3) #23
  ret void
}

; Function Attrs: nounwind sspstrong uwtable
define internal void @finalizer_warn(ptr noundef %0) #0 {
  %2 = alloca ptr, align 8
  store ptr %0, ptr %2, align 8, !tbaa !19
  ret void
}

; Function Attrs: nounwind sspstrong uwtable
define internal void @gzfile_free(ptr noundef %0) #0 {
  %2 = alloca ptr, align 8
  %3 = alloca ptr, align 8
  %4 = alloca ptr, align 8
  store ptr %0, ptr %2, align 8, !tbaa !77
  call void @llvm.lifetime.start.p0(i64 8, ptr %3) #23
  %5 = load ptr, ptr %2, align 8, !tbaa !77
  store ptr %5, ptr %3, align 8, !tbaa !57
  call void @llvm.lifetime.start.p0(i64 8, ptr %4) #23
  %6 = load ptr, ptr %3, align 8, !tbaa !57
  %7 = getelementptr inbounds nuw %struct.gzfile, ptr %6, i32 0, i32 0
  store ptr %7, ptr %4, align 8, !tbaa !21
  %8 = load ptr, ptr %4, align 8, !tbaa !21
  %9 = getelementptr inbounds nuw %struct.zstream, ptr %8, i32 0, i32 0
  %10 = load i64, ptr %9, align 8, !tbaa !33
  %11 = and i64 %10, 1
  %12 = icmp ne i64 %11, 0
  br i1 %12, label %13, label %21

13:                                               ; preds = %1
  %14 = load ptr, ptr %4, align 8, !tbaa !21
  %15 = getelementptr inbounds nuw %struct.zstream, ptr %14, i32 0, i32 5
  %16 = load ptr, ptr %15, align 8, !tbaa !93
  %17 = icmp eq ptr %16, @deflate_funcs
  br i1 %17, label %18, label %19

18:                                               ; preds = %13
  call void @finalizer_warn(ptr noundef @.str.164)
  br label %19

19:                                               ; preds = %18, %13
  %20 = load ptr, ptr %4, align 8, !tbaa !21
  call void @zstream_finalize(ptr noundef %20)
  br label %21

21:                                               ; preds = %19, %1
  %22 = load ptr, ptr %3, align 8, !tbaa !57
  call void @ruby_xfree(ptr noundef %22)
  call void @llvm.lifetime.end.p0(i64 8, ptr %4) #23
  call void @llvm.lifetime.end.p0(i64 8, ptr %3) #23
  ret void
}