; Function Attrs: nounwind sspstrong uwtable
define internal void @gzfile_free(ptr noundef %0) #0 {
  %2 = load i64, ptr %0, align 8, !tbaa !42
  %3 = and i64 %2, 1
  %.not = icmp eq i64 %3, 0
  br i1 %.not, label %11, label %4

4:                                                ; preds = %1
  %5 = getelementptr inbounds nuw i8, ptr %0, i64 144
  %6 = load ptr, ptr %5, align 8, !tbaa !56
  %7 = getelementptr inbounds nuw i8, ptr %6, i64 8
  %8 = load ptr, ptr %7, align 8, !tbaa !196
  %9 = getelementptr inbounds nuw i8, ptr %0, i64 32
  %10 = tail call i32 %8(ptr noundef nonnull %9) #18
  br label %11

11:                                               ; preds = %4, %1
  tail call void @ruby_xfree(ptr noundef nonnull %0) #18
  ret void
}